target datalayout = "e-m:e-p270:32:32-p271:32:32-p272:64:64-i64:64-i128:128-f80:128-n8:16:32:64-S128"
target triple = "x86_64-pc-linux-gnu"

%struct.git_istream = type { ptr, ptr, ptr, i64, %struct.git_zstream, i32, %union.anon }
%struct.git_zstream = type { %struct.z_stream_s, i64, i64, i64, i64, ptr, ptr }
%struct.z_stream_s = type { ptr, i32, i64, ptr, i32, i64, ptr, ptr, ptr, ptr, ptr, i32, i64, i64 }
%union.anon = type { %struct.filtered_istream }
%struct.filtered_istream = type { ptr, ptr, [16384 x i8], [16384 x i8], i32, i32, i32, i32, i32 }

; Function Attrs: nounwind uwtable
define internal void @close_deflated_stream(ptr noundef %0) #0 {
  %2 = alloca ptr, align 8
  store ptr %0, ptr %2, align 8, !tbaa !4
  %3 = load ptr, ptr %2, align 8, !tbaa !4
  %4 = getelementptr inbounds nuw %struct.git_istream, ptr %3, i32 0, i32 5
  %5 = load i32, ptr %4, align 8, !tbaa !84
  %6 = icmp eq i32 %5, 1
  br i1 %6, label %7, label %10

7:                                                ; preds = %1
  %8 = load ptr, ptr %2, align 8, !tbaa !4
  %9 = getelementptr inbounds nuw %struct.git_istream, ptr %8, i32 0, i32 4
  call void @git_inflate_end(ptr noundef %9)
  br label %10

10:                                               ; preds = %7, %1
  ret void
}

; Function Attrs: nounwind uwtable
define internal i32 @close_istream_pack_non_delta(ptr noundef %0) #0 {
  %2 = alloca ptr, align 8
  store ptr %0, ptr %2, align 8, !tbaa !4
  %3 = load ptr, ptr %2, align 8, !tbaa !4
  call void @close_deflated_stream(ptr noundef %3)
  ret i32 0
}