; Function Attrs: nounwind uwtable
define internal noundef i32 @close_istream_pack_non_delta(ptr noundef %0) #0 {
  %2 = getelementptr inbounds nuw i8, ptr %0, i64 192
  %3 = load i32, ptr %2, align 8, !tbaa !72
  %4 = icmp eq i32 %3, 1
  br i1 %4, label %5, label %close_deflated_stream.exit

5:                                                ; preds = %1
  %6 = getelementptr inbounds nuw i8, ptr %0, i64 32
  tail call void @git_inflate_end(ptr noundef nonnull %6) #11
  br label %close_deflated_stream.exit

close_deflated_stream.exit:                       ; preds = %1, %5
  ret i32 0
}